; Function Attrs: mustprogress nounwind uwtable
define noundef i64 @_ZN11OpenImageIO6v3_1_07Strutil5rfindENS0_17basic_string_viewIcSt11char_traitsIcEEES5_(ptr noundef nonnull %0, ptr noundef readonly captures(none) %1) local_unnamed_addr #15 {
  %3 = alloca %"class.OpenImageIO::v3_1_0::basic_string_view", align 8
  %4 = load ptr, ptr %1, align 8, !tbaa !67
  store ptr %4, ptr %3, align 8, !tbaa !67
  %5 = getelementptr inbounds nuw i8, ptr %3, i64 8
  %6 = getelementptr inbounds nuw i8, ptr %1, i64 8
  %7 = load i64, ptr %6, align 8, !tbaa !64
  store i64 %7, ptr %5, align 8, !tbaa !64
  %8 = call noundef i64 @_ZNK11OpenImageIO6v3_1_017basic_string_viewIcSt11char_traitsIcEE5rfindES4_m(ptr noundef nonnull align 8 dereferenceable(16) %0, ptr noundef nonnull %3, i64 noundef -1) #16
  ret i64 %8
}